(lp1
(dp2
S'status'
p3
S'yapildi'
p4
sS'priority'
p5
S'important'
p6
sS'enddate'
p7
S'Not defined'
p8
sS'description'
p9
S'No description'
p10
sS'title'
p11
S'mustafa deneme'
p12
sa(dp13
S'status'
p14
S'yapiliyor'
p15
sS'priority'
p16
S'important'
p17
sS'enddate'
p18
S'Not defined'
p19
sS'description'
p20
S'No description'
p21
sS'title'
p22
S'mustafa deneme'
p23
sa(dp24
S'status'
p25
S'yapiliyor'
p26
sS'priority'
p27
S'important'
p28
sS'enddate'
p29
S'Not defined'
p30
sS'description'
p31
S'No description'
p32
sS'title'
p33
S'mustafa deneme'
p34
sa(dp35
S'status'
p36
NsS'priority'
p37
NsS'enddate'
p38
NsS'description'
p39
NsS'title'
p40
S'bakalimne olacak'
p41
sa(dp42
S'status'
p43
S'yapiliyor'
p44
sS'priority'
p45
S'important'
p46
sS'enddate'
p47
S'Not defined'
p48
sS'description'
p49
S'No description'
p50
sS'title'
p51
S'bir is daha'
p52
sa(dp53
S'status'
p54
S'yapiliyor'
p55
sS'priority'
p56
S'important'
p57
sS'enddate'
p58
S'Not defined'
p59
sS'description'
p60
S'No description'
p61
sS'title'
p62
S'bir is daha'
p63
sa.