(lp1
(dp2
S'status'
p3
S'yapilmadi'
p4
sS'enddate'
p5
S'30.11.2014'
p6
sS'description'
p7
(lp8
S'email'
p9
aS'ile'
p10
aS'gonderildi'
p11
asS'title'
p12
(lp13
S'latex'
p14
aS'homework'
p15
aS'2'
aS'yapilacak'
p16
asa(dp17
S'status'
p18
S'yapilmadi'
p19
sS'description'
p20
(lp21
S'tum'
p22
aS'ders'
p23
aS'konulari'
p24
asS'title'
p25
(lp26
S'math'
p27
aS'101'
p28
aS'konulari'
p29
aS'tekrar'
p30
aS'edilecek'
p31
asa.