(lp1
(dp2
S'status'
p3
S'dende'
p4
sS'priority'
p5
S'important'
p6
sS'description'
p7
(lp8
S'dedenkjde'
p9
asS'title'
p10
(lp11
S'denemdede'
p12
asa(dp13
S'status'
p14
S'yapiliyor'
p15
sS'priority'
p16
S'important'
p17
sS'description'
p18
(lp19
S'No'
p20
aS'description'
p21
asS'title'
p22
(lp23
S'denemdede'
p24
asa(dp25
S'status'
p26
S'yapilmadi'
p27
sS'priority'
p28
S'important'
p29
sS'description'
p30
(lp31
S'No'
p32
aS'description'
p33
asS'title'
p34
(lp35
S'denemdede'
p36
asa(dp37
S'status'
p38
S'dende'
p39
sS'priority'
p40
S'important'
p41
sS'description'
p42
(lp43
S'dedenkjde'
p44
asS'title'
p45
(lp46
S'denemdede'
p47
asa.