(lp1
(dp2
S'status'
p3
S'yapiliyor'
p4
sS'priority'
p5
S'important'
p6
sS'description'
p7
(lp8
S'No'
p9
aS'description'
p10
asS'title'
p11
(lp12
S'denemdede'
p13
asa(dp14
S'status'
p15
S'yapilmadi'
p16
sS'priority'
p17
S'important'
p18
sS'description'
p19
(lp20
S'No'
p21
aS'description'
p22
asS'title'
p23
(lp24
S'denemdede'
p25
asa(dp26
S'status'
p27
S'dende'
p28
sS'priority'
p29
S'important'
p30
sS'description'
p31
(lp32
S'dedenkjde'
p33
asS'title'
p34
(lp35
S'denemdede'
p36
asa.