(lp1
(dp2
S'status'
p3
S'dende'
p4
sS'priority'
p5
S'important'
p6
sS'description'
p7
(lp8
S'dedenkjde'
p9
asS'title'
p10
(lp11
S'denemdede'
p12
asa(dp13
S'status'
p14
S'dende'
p15
sS'priority'
p16
S'important'
p17
sS'description'
p18
(lp19
S'dedenkjde'
p20
asS'title'
p21
(lp22
S'denemdede'
p23
asa(dp24
S'status'
p25
S'yapilmadi'
p26
sS'priority'
p27
S'important'
p28
sS'description'
p29
(lp30
S'No'
p31
aS'description'
p32
asS'title'
p33
(lp34
S'denemdede'
p35
asa(dp36
S'status'
p37
S'dende'
p38
sS'priority'
p39
S'important'
p40
sS'description'
p41
(lp42
S'dedenkjde'
p43
asS'title'
p44
(lp45
S'denemdede'
p46
asa.