(lp1
(dp2
S'status'
p3
S'asdasvc'
p4
sS'title'
p5
(lp6
S'mustasad'
p7
asa(dp8
S'status'
p9
S'asdasvc'
p10
sS'title'
p11
(lp12
S'mustasad'
p13
asa(dp14
S'status'
p15
S'asdasvc'
p16
sS'title'
p17
(lp18
S'mustasad'
p19
asa(dp20
S'status'
p21
S'asdasvc'
p22
sS'title'
p23
(lp24
S'mustasad'
p25
asa(dp26
S'status'
p27
S'asdasvc'
p28
sS'title'
p29
(lp30
S'mustasad'
p31
asa(dp32
S'status'
p33
S'asdasvc'
p34
sS'title'
p35
(lp36
S'mustasad'
p37
asa(dp38
S'status'
p39
S'asdasvc'
p40
sS'title'
p41
(lp42
S'mustasad'
p43
asa(dp44
S'status'
p45
S'asdasvc'
p46
sS'title'
p47
(lp48
S'mustasad'
p49
asa(dp50
S'status'
p51
S'dursun'
p52
sS'title'
p53
(lp54
S'cemalettin'
p55
asa.