(lp1
(dp2
S'status'
p3
S'yapilacak'
p4
sS'description'
p5
(lp6
S'tum'
p7
aS'ders'
p8
aS'konulari'
p9
asS'title'
p10
(lp11
S'math'
p12
aS'101'
p13
aS'konulari'
p14
aS'tekrar'
p15
aS'edilecek'
p16
asa(dp17
S'status'
p18
S'yapilmadi'
p19
sS'description'
p20
(lp21
S'tum'
p22
aS'ders'
p23
aS'konulari'
p24
asS'title'
p25
(lp26
S'math'
p27
aS'101'
p28
aS'konulari'
p29
aS'tekrar'
p30
aS'edilecek'
p31
asa(dp32
S'status'
p33
S'yapilmadi'
p34
sS'description'
p35
(lp36
S'tum'
p37
aS'ders'
p38
aS'konulari'
p39
asS'title'
p40
(lp41
S'math'
p42
aS'101'
p43
aS'konulari'
p44
aS'tekrar'
p45
aS'edilecek'
p46
asa.